; Function Attrs: nounwind uwtable
define ptr @l_Array_mapM_x27___at_Lean_Meta_DiscrTree_mapArrays___spec__7___rarg___boxed(ptr noundef %0, ptr noundef %1) #2 {
  %3 = getelementptr i8, ptr %1, i64 8
  %.val.i = load i64, ptr %3, align 8, !tbaa !14
  %4 = and i64 %.val.i, 9223372036854775807
  %5 = shl i64 %.val.i, 3
  %6 = add i64 %5, 24
  %7 = tail call ptr @lean_alloc_object(i64 noundef %6) #7
  store i32 1, ptr %7, align 4, !tbaa !4
  %8 = getelementptr inbounds nuw i8, ptr %7, i64 4
  %9 = load i32, ptr %8, align 4
  %10 = and i32 %9, 65535
  %11 = or disjoint i32 %10, -167772160
  store i32 %11, ptr %8, align 4
  %12 = getelementptr inbounds nuw i8, ptr %7, i64 8
  store i64 0, ptr %12, align 8, !tbaa !14
  %13 = getelementptr inbounds nuw i8, ptr %7, i64 16
  store i64 %4, ptr %13, align 8, !tbaa !14
  %14 = tail call ptr @l_Array_mapM_x27_go___at_Lean_Meta_DiscrTree_mapArrays___spec__8___rarg(ptr noundef %0, ptr noundef readonly %1, ptr noundef nonnull inttoptr (i64 1 to ptr), ptr noundef nonnull %7, ptr nonnull poison)
  %15 = ptrtoint ptr %1 to i64
  %16 = and i64 %15, 1
  %.not = icmp eq i64 %16, 0
  br i1 %.not, label %17, label %lean_dec.exit

17:                                               ; preds = %2
  %18 = load i32, ptr %1, align 4, !tbaa !4
  %19 = icmp sgt i32 %18, 1
  br i1 %19, label %20, label %22, !prof !11

20:                                               ; preds = %17
  %21 = add nsw i32 %18, -1
  store i32 %21, ptr %1, align 4, !tbaa !4
  br label %lean_dec.exit

22:                                               ; preds = %17
  %.not.i = icmp eq i32 %18, 0
  br i1 %.not.i, label %lean_dec.exit, label %23

23:                                               ; preds = %22
  tail call void @lean_dec_ref_cold(ptr noundef nonnull %1) #7
  br label %lean_dec.exit

lean_dec.exit:                                    ; preds = %23, %22, %20, %2
  ret ptr %14
}